target datalayout = "e-m:e-p270:32:32-p271:32:32-p272:64:64-i64:64-i128:128-f80:128-n8:16:32:64-S128"
target triple = "x86_64-pc-linux-gnu"

%"struct.OpenColorIO_v2_5dev::GradingRGBMSW" = type { double, double, double, double, double, double }
%"struct.OpenColorIO_v2_5dev::GradingTone" = type { %"struct.OpenColorIO_v2_5dev::GradingRGBMSW", %"struct.OpenColorIO_v2_5dev::GradingRGBMSW", %"struct.OpenColorIO_v2_5dev::GradingRGBMSW", %"struct.OpenColorIO_v2_5dev::GradingRGBMSW", %"struct.OpenColorIO_v2_5dev::GradingRGBMSW", double }
%"struct.OpenColorIO_v2_5dev::GradingTonePreRender" = type { double, double, double, double, double, double, double, double, [4 x [6 x float]], [4 x [6 x float]], [4 x [6 x float]], [2 x [4 x [3 x float]]], [2 x [4 x [3 x float]]], [2 x [4 x [2 x float]]], [2 x [4 x [2 x float]]], [2 x [4 x [2 x float]]], [2 x [4 x [2 x float]]], [2 x [4 x float]], [2 x [4 x float]], [2 x [4 x float]], [2 x [2 x float]], float, float, float, float, i8, i32 }

; Function Attrs: mustprogress uwtable
define hidden void @_ZN19OpenColorIO_v2_5dev20GradingTonePreRender6updateERKNS_11GradingToneE(ptr noundef nonnull align 8 dereferenceable(936) %0, ptr noundef nonnull align 8 dereferenceable(248) %1) #5 align 2 {
  %3 = alloca ptr, align 8
  %4 = alloca ptr, align 8
  %5 = alloca double, align 8
  %6 = alloca double, align 8
  %7 = alloca double, align 8
  %8 = alloca double, align 8
  %9 = alloca double, align 8
  %10 = alloca double, align 8
  %11 = alloca double, align 8
  %12 = alloca double, align 8
  %13 = alloca double, align 8
  %14 = alloca double, align 8
  %15 = alloca double, align 8
  %16 = alloca double, align 8
  %17 = alloca double, align 8
  %18 = alloca double, align 8
  store ptr %0, ptr %3, align 8, !tbaa !33
  store ptr %1, ptr %4, align 8, !tbaa !16
  %19 = load ptr, ptr %3, align 8
  %20 = load ptr, ptr %4, align 8, !tbaa !16
  %21 = call noundef zeroext i1 @_ZN19OpenColorIO_v2_5dev10IsIdentityERKNS_11GradingToneE(ptr noundef nonnull align 8 dereferenceable(248) %20)
  %22 = getelementptr inbounds nuw %"struct.OpenColorIO_v2_5dev::GradingTonePreRender", ptr %19, i32 0, i32 25
  %23 = zext i1 %21 to i8
  store i8 %23, ptr %22, align 8, !tbaa !56
  %24 = getelementptr inbounds nuw %"struct.OpenColorIO_v2_5dev::GradingTonePreRender", ptr %19, i32 0, i32 25
  %25 = load i8, ptr %24, align 8, !tbaa !56, !range !60, !noundef !61
  %26 = trunc i8 %25 to i1
  br i1 %26, label %27, label %28

27:                                               ; preds = %2
  br label %155

28:                                               ; preds = %2
  call void @llvm.lifetime.start.p0(i64 8, ptr %5) #3
  %29 = load ptr, ptr %4, align 8, !tbaa !16
  %30 = getelementptr inbounds nuw %"struct.OpenColorIO_v2_5dev::GradingTone", ptr %29, i32 0, i32 3
  %31 = getelementptr inbounds nuw %"struct.OpenColorIO_v2_5dev::GradingRGBMSW", ptr %30, i32 0, i32 3
  %32 = load double, ptr %31, align 8, !tbaa !62
  store double %32, ptr %5, align 8, !tbaa !28
  call void @llvm.lifetime.start.p0(i64 8, ptr %6) #3
  %33 = load ptr, ptr %4, align 8, !tbaa !16
  %34 = getelementptr inbounds nuw %"struct.OpenColorIO_v2_5dev::GradingTone", ptr %33, i32 0, i32 3
  %35 = getelementptr inbounds nuw %"struct.OpenColorIO_v2_5dev::GradingRGBMSW", ptr %34, i32 0, i32 4
  %36 = load double, ptr %35, align 8, !tbaa !63
  store double %36, ptr %6, align 8, !tbaa !28
  call void @llvm.lifetime.start.p0(i64 8, ptr %7) #3
  %37 = load ptr, ptr %4, align 8, !tbaa !16
  %38 = getelementptr inbounds nuw %"struct.OpenColorIO_v2_5dev::GradingTone", ptr %37, i32 0, i32 3
  %39 = getelementptr inbounds nuw %"struct.OpenColorIO_v2_5dev::GradingRGBMSW", ptr %38, i32 0, i32 5
  %40 = load double, ptr %39, align 8, !tbaa !64
  store double %40, ptr %7, align 8, !tbaa !28
  call void @llvm.lifetime.start.p0(i64 8, ptr %8) #3
  %41 = load ptr, ptr %4, align 8, !tbaa !16
  %42 = getelementptr inbounds nuw %"struct.OpenColorIO_v2_5dev::GradingTone", ptr %41, i32 0, i32 4
  %43 = getelementptr inbounds nuw %"struct.OpenColorIO_v2_5dev::GradingRGBMSW", ptr %42, i32 0, i32 4
  %44 = load double, ptr %43, align 8, !tbaa !65
  store double %44, ptr %8, align 8, !tbaa !28
  call void @llvm.lifetime.start.p0(i64 8, ptr %9) #3
  %45 = load ptr, ptr %4, align 8, !tbaa !16
  %46 = getelementptr inbounds nuw %"struct.OpenColorIO_v2_5dev::GradingTone", ptr %45, i32 0, i32 4
  %47 = getelementptr inbounds nuw %"struct.OpenColorIO_v2_5dev::GradingRGBMSW", ptr %46, i32 0, i32 5
  %48 = load double, ptr %47, align 8, !tbaa !66
  store double %48, ptr %9, align 8, !tbaa !28
  %49 = load double, ptr %6, align 8, !tbaa !28
  %50 = load double, ptr %7, align 8, !tbaa !28
  %51 = fsub double %50, 1.000000e-02
  %52 = fcmp ogt double %49, %51
  br i1 %52, label %53, label %56

53:                                               ; preds = %28
  %54 = load double, ptr %7, align 8, !tbaa !28
  %55 = fsub double %54, 1.000000e-02
  br label %58

56:                                               ; preds = %28
  %57 = load double, ptr %6, align 8, !tbaa !28
  br label %58

58:                                               ; preds = %56, %53
  %59 = phi double [ %55, %53 ], [ %57, %56 ]
  %60 = getelementptr inbounds nuw %"struct.OpenColorIO_v2_5dev::GradingTonePreRender", ptr %19, i32 0, i32 2
  store double %59, ptr %60, align 8, !tbaa !42
  %61 = load double, ptr %7, align 8, !tbaa !28
  %62 = getelementptr inbounds nuw %"struct.OpenColorIO_v2_5dev::GradingTonePreRender", ptr %19, i32 0, i32 3
  store double %61, ptr %62, align 8, !tbaa !43
  call void @llvm.lifetime.start.p0(i64 8, ptr %10) #3
  %63 = load double, ptr %8, align 8, !tbaa !28
  %64 = getelementptr inbounds nuw %"struct.OpenColorIO_v2_5dev::GradingTonePreRender", ptr %19, i32 0, i32 2
  %65 = load double, ptr %64, align 8, !tbaa !42
  %66 = getelementptr inbounds nuw %"struct.OpenColorIO_v2_5dev::GradingTonePreRender", ptr %19, i32 0, i32 3
  %67 = load double, ptr %66, align 8, !tbaa !43
  %68 = load double, ptr %5, align 8, !tbaa !28
  %69 = call noundef double @_ZN19OpenColorIO_v2_5dev12_GLOBAL__N_116HighlightFwdEvalEdddd(double noundef %63, double noundef %65, double noundef %67, double noundef %68)
  store double %69, ptr %10, align 8, !tbaa !28
  call void @llvm.lifetime.start.p0(i64 8, ptr %11) #3
  %70 = load double, ptr %8, align 8, !tbaa !28
  %71 = load double, ptr %9, align 8, !tbaa !28
  %72 = fadd double %70, %71
  %73 = getelementptr inbounds nuw %"struct.OpenColorIO_v2_5dev::GradingTonePreRender", ptr %19, i32 0, i32 2
  %74 = load double, ptr %73, align 8, !tbaa !42
  %75 = getelementptr inbounds nuw %"struct.OpenColorIO_v2_5dev::GradingTonePreRender", ptr %19, i32 0, i32 3
  %76 = load double, ptr %75, align 8, !tbaa !43
  %77 = load double, ptr %5, align 8, !tbaa !28
  %78 = call noundef double @_ZN19OpenColorIO_v2_5dev12_GLOBAL__N_116HighlightFwdEvalEdddd(double noundef %72, double noundef %74, double noundef %76, double noundef %77)
  store double %78, ptr %11, align 8, !tbaa !28
  %79 = load double, ptr %10, align 8, !tbaa !28
  %80 = getelementptr inbounds nuw %"struct.OpenColorIO_v2_5dev::GradingTonePreRender", ptr %19, i32 0, i32 6
  store double %79, ptr %80, align 8, !tbaa !46
  %81 = load double, ptr %11, align 8, !tbaa !28
  %82 = load double, ptr %10, align 8, !tbaa !28
  %83 = fsub double %81, %82
  %84 = getelementptr inbounds nuw %"struct.OpenColorIO_v2_5dev::GradingTonePreRender", ptr %19, i32 0, i32 7
  store double %83, ptr %84, align 8, !tbaa !47
  call void @llvm.lifetime.end.p0(i64 8, ptr %11) #3
  call void @llvm.lifetime.end.p0(i64 8, ptr %10) #3
  call void @llvm.lifetime.end.p0(i64 8, ptr %9) #3
  call void @llvm.lifetime.end.p0(i64 8, ptr %8) #3
  call void @llvm.lifetime.end.p0(i64 8, ptr %7) #3
  call void @llvm.lifetime.end.p0(i64 8, ptr %6) #3
  call void @llvm.lifetime.end.p0(i64 8, ptr %5) #3
  call void @llvm.lifetime.start.p0(i64 8, ptr %12) #3
  %85 = load ptr, ptr %4, align 8, !tbaa !16
  %86 = getelementptr inbounds nuw %"struct.OpenColorIO_v2_5dev::GradingTone", ptr %85, i32 0, i32 1
  %87 = getelementptr inbounds nuw %"struct.OpenColorIO_v2_5dev::GradingRGBMSW", ptr %86, i32 0, i32 3
  %88 = load double, ptr %87, align 8, !tbaa !67
  store double %88, ptr %12, align 8, !tbaa !28
  call void @llvm.lifetime.start.p0(i64 8, ptr %13) #3
  %89 = load ptr, ptr %4, align 8, !tbaa !16
  %90 = getelementptr inbounds nuw %"struct.OpenColorIO_v2_5dev::GradingTone", ptr %89, i32 0, i32 1
  %91 = getelementptr inbounds nuw %"struct.OpenColorIO_v2_5dev::GradingRGBMSW", ptr %90, i32 0, i32 4
  %92 = load double, ptr %91, align 8, !tbaa !68
  store double %92, ptr %13, align 8, !tbaa !28
  call void @llvm.lifetime.start.p0(i64 8, ptr %14) #3
  %93 = load ptr, ptr %4, align 8, !tbaa !16
  %94 = getelementptr inbounds nuw %"struct.OpenColorIO_v2_5dev::GradingTone", ptr %93, i32 0, i32 1
  %95 = getelementptr inbounds nuw %"struct.OpenColorIO_v2_5dev::GradingRGBMSW", ptr %94, i32 0, i32 5
  %96 = load double, ptr %95, align 8, !tbaa !69
  store double %96, ptr %14, align 8, !tbaa !28
  call void @llvm.lifetime.start.p0(i64 8, ptr %15) #3
  %97 = load ptr, ptr %4, align 8, !tbaa !16
  %98 = getelementptr inbounds nuw %"struct.OpenColorIO_v2_5dev::GradingTone", ptr %97, i32 0, i32 0
  %99 = getelementptr inbounds nuw %"struct.OpenColorIO_v2_5dev::GradingRGBMSW", ptr %98, i32 0, i32 4
  %100 = load double, ptr %99, align 8, !tbaa !70
  store double %100, ptr %15, align 8, !tbaa !28
  call void @llvm.lifetime.start.p0(i64 8, ptr %16) #3
  %101 = load ptr, ptr %4, align 8, !tbaa !16
  %102 = getelementptr inbounds nuw %"struct.OpenColorIO_v2_5dev::GradingTone", ptr %101, i32 0, i32 0
  %103 = getelementptr inbounds nuw %"struct.OpenColorIO_v2_5dev::GradingRGBMSW", ptr %102, i32 0, i32 5
  %104 = load double, ptr %103, align 8, !tbaa !71
  store double %104, ptr %16, align 8, !tbaa !28
  %105 = load double, ptr %13, align 8, !tbaa !28
  %106 = load double, ptr %14, align 8, !tbaa !28
  %107 = fadd double %106, 1.000000e-02
  %108 = fcmp olt double %105, %107
  br i1 %108, label %109, label %112

109:                                              ; preds = %58
  %110 = load double, ptr %14, align 8, !tbaa !28
  %111 = fadd double %110, 1.000000e-02
  br label %114

112:                                              ; preds = %58
  %113 = load double, ptr %13, align 8, !tbaa !28
  br label %114

114:                                              ; preds = %112, %109
  %115 = phi double [ %111, %109 ], [ %113, %112 ]
  %116 = getelementptr inbounds nuw %"struct.OpenColorIO_v2_5dev::GradingTonePreRender", ptr %19, i32 0, i32 0
  store double %115, ptr %116, align 8, !tbaa !37
  %117 = load double, ptr %14, align 8, !tbaa !28
  %118 = getelementptr inbounds nuw %"struct.OpenColorIO_v2_5dev::GradingTonePreRender", ptr %19, i32 0, i32 1
  store double %117, ptr %118, align 8, !tbaa !41
  call void @llvm.lifetime.start.p0(i64 8, ptr %17) #3
  %119 = load double, ptr %15, align 8, !tbaa !28
  %120 = getelementptr inbounds nuw %"struct.OpenColorIO_v2_5dev::GradingTonePreRender", ptr %19, i32 0, i32 1
  %121 = load double, ptr %120, align 8, !tbaa !41
  %122 = getelementptr inbounds nuw %"struct.OpenColorIO_v2_5dev::GradingTonePreRender", ptr %19, i32 0, i32 0
  %123 = load double, ptr %122, align 8, !tbaa !37
  %124 = load double, ptr %12, align 8, !tbaa !28
  %125 = call noundef double @_ZN19OpenColorIO_v2_5dev12_GLOBAL__N_113ShadowFwdEvalEdddd(double noundef %119, double noundef %121, double noundef %123, double noundef %124)
  store double %125, ptr %17, align 8, !tbaa !28
  call void @llvm.lifetime.start.p0(i64 8, ptr %18) #3
  %126 = load double, ptr %15, align 8, !tbaa !28
  %127 = load double, ptr %16, align 8, !tbaa !28
  %128 = fsub double %126, %127
  %129 = getelementptr inbounds nuw %"struct.OpenColorIO_v2_5dev::GradingTonePreRender", ptr %19, i32 0, i32 1
  %130 = load double, ptr %129, align 8, !tbaa !41
  %131 = getelementptr inbounds nuw %"struct.OpenColorIO_v2_5dev::GradingTonePreRender", ptr %19, i32 0, i32 0
  %132 = load double, ptr %131, align 8, !tbaa !37
  %133 = load double, ptr %12, align 8, !tbaa !28
  %134 = call noundef double @_ZN19OpenColorIO_v2_5dev12_GLOBAL__N_113ShadowFwdEvalEdddd(double noundef %128, double noundef %130, double noundef %132, double noundef %133)
  store double %134, ptr %18, align 8, !tbaa !28
  %135 = load double, ptr %17, align 8, !tbaa !28
  %136 = getelementptr inbounds nuw %"struct.OpenColorIO_v2_5dev::GradingTonePreRender", ptr %19, i32 0, i32 4
  store double %135, ptr %136, align 8, !tbaa !44
  %137 = load double, ptr %17, align 8, !tbaa !28
  %138 = load double, ptr %18, align 8, !tbaa !28
  %139 = fsub double %137, %138
  %140 = getelementptr inbounds nuw %"struct.OpenColorIO_v2_5dev::GradingTonePreRender", ptr %19, i32 0, i32 5
  store double %139, ptr %140, align 8, !tbaa !45
  call void @llvm.lifetime.end.p0(i64 8, ptr %18) #3
  call void @llvm.lifetime.end.p0(i64 8, ptr %17) #3
  call void @llvm.lifetime.end.p0(i64 8, ptr %16) #3
  call void @llvm.lifetime.end.p0(i64 8, ptr %15) #3
  call void @llvm.lifetime.end.p0(i64 8, ptr %14) #3
  call void @llvm.lifetime.end.p0(i64 8, ptr %13) #3
  call void @llvm.lifetime.end.p0(i64 8, ptr %12) #3
  %141 = load ptr, ptr %4, align 8, !tbaa !16
  %142 = getelementptr inbounds nuw %"struct.OpenColorIO_v2_5dev::GradingTonePreRender", ptr %19, i32 0, i32 21
  %143 = load float, ptr %142, align 8, !tbaa !52
  %144 = getelementptr inbounds nuw %"struct.OpenColorIO_v2_5dev::GradingTonePreRender", ptr %19, i32 0, i32 23
  %145 = load float, ptr %144, align 8, !tbaa !54
  call void @_ZN19OpenColorIO_v2_5dev20GradingTonePreRender15mids_precomputeERKNS_11GradingToneEff(ptr noundef nonnull align 8 dereferenceable(936) %19, ptr noundef nonnull align 8 dereferenceable(248) %141, float noundef %143, float noundef %145)
  %146 = load ptr, ptr %4, align 8, !tbaa !16
  call void @_ZN19OpenColorIO_v2_5dev20GradingTonePreRender26highlightShadow_precomputeERKNS_11GradingToneE(ptr noundef nonnull align 8 dereferenceable(936) %19, ptr noundef nonnull align 8 dereferenceable(248) %146)
  %147 = load ptr, ptr %4, align 8, !tbaa !16
  call void @_ZN19OpenColorIO_v2_5dev20GradingTonePreRender21whiteBlack_precomputeERKNS_11GradingToneE(ptr noundef nonnull align 8 dereferenceable(936) %19, ptr noundef nonnull align 8 dereferenceable(248) %147)
  %148 = load ptr, ptr %4, align 8, !tbaa !16
  %149 = getelementptr inbounds nuw %"struct.OpenColorIO_v2_5dev::GradingTonePreRender", ptr %19, i32 0, i32 22
  %150 = load float, ptr %149, align 4, !tbaa !53
  %151 = getelementptr inbounds nuw %"struct.OpenColorIO_v2_5dev::GradingTonePreRender", ptr %19, i32 0, i32 23
  %152 = load float, ptr %151, align 8, !tbaa !54
  %153 = getelementptr inbounds nuw %"struct.OpenColorIO_v2_5dev::GradingTonePreRender", ptr %19, i32 0, i32 24
  %154 = load float, ptr %153, align 4, !tbaa !55
  call void @_ZN19OpenColorIO_v2_5dev20GradingTonePreRender20scontrast_precomputeERKNS_11GradingToneEfff(ptr noundef nonnull align 8 dereferenceable(936) %19, ptr noundef nonnull align 8 dereferenceable(248) %148, float noundef %150, float noundef %152, float noundef %154)
  br label %155

155:                                              ; preds = %114, %27
  ret void
}